; ModuleID = '51/335.c'
source_filename = "51/335.c"
target datalayout = "e-m:e-p270:32:32-p271:32:32-p272:64:64-i64:64-f80:128-n8:16:32:64-S128"
target triple = "x86_64-pc-linux-gnu"

@.str = private unnamed_addr constant [4 x i8] c"%d\0A\00", align 1
@.str.1 = private unnamed_addr constant [4 x i8] c"%s\0A\00", align 1
@.str.2 = private unnamed_addr constant [3 x i8] c"NO\00", align 1

; Function Attrs: noinline nounwind uwtable
define dso_local i32 @main() #0 {
  %1 = alloca i32, align 4
  %2 = alloca i32, align 4
  %3 = alloca [250 x i8], align 16
  %4 = alloca i32, align 4
  %5 = alloca i32, align 4
  %6 = alloca i32, align 4
  %7 = alloca i32, align 4
  %8 = alloca [250 x i32], align 16
  %9 = alloca [250 x [5 x i8]], align 16
  %10 = alloca i32, align 4
  store i32 0, i32* %1, align 4
  %11 = call i32 (i8*, ...) @__isoc99_scanf(i8* getelementptr inbounds ([4 x i8], [4 x i8]* @.str, i64 0, i64 0), i32* %2)
  %12 = getelementptr inbounds [250 x i8], [250 x i8]* %3, i64 0, i64 0
  %13 = call i32 (i8*, ...) bitcast (i32 (...)* @gets to i32 (i8*, ...)*)(i8* %12)
  %14 = getelementptr inbounds [250 x i8], [250 x i8]* %3, i64 0, i64 0
  %15 = call i64 @strlen(i8* %14) #4
  %16 = trunc i64 %15 to i32
  store i32 %16, i32* %4, align 4
  store i32 0, i32* %5, align 4
  store i32 0, i32* %6, align 4
  store i32 0, i32* %7, align 4
  %17 = bitcast [250 x i32]* %8 to i8*
  call void @llvm.memset.p0i8.i64(i8* align 16 %17, i8 0, i64 1000, i1 false)
  %18 = bitcast [250 x [5 x i8]]* %9 to i8*
  call void @llvm.memset.p0i8.i64(i8* align 16 %18, i8 0, i64 1250, i1 false)
  store i32 0, i32* %5, align 4
  br label %19

19:                                               ; preds = %52, %0
  %20 = load i32, i32* %5, align 4
  %21 = load i32, i32* %4, align 4
  %22 = load i32, i32* %2, align 4
  %23 = sub nsw i32 %21, %22
  %24 = icmp sle i32 %20, %23
  br i1 %24, label %25, label %55

25:                                               ; preds = %19
  %26 = load i32, i32* %5, align 4
  store i32 %26, i32* %6, align 4
  br label %27

27:                                               ; preds = %46, %25
  %28 = load i32, i32* %6, align 4
  %29 = load i32, i32* %5, align 4
  %30 = load i32, i32* %2, align 4
  %31 = add nsw i32 %29, %30
  %32 = icmp slt i32 %28, %31
  br i1 %32, label %33, label %49

33:                                               ; preds = %27
  %34 = load i32, i32* %6, align 4
  %35 = sext i32 %34 to i64
  %36 = getelementptr inbounds [250 x i8], [250 x i8]* %3, i64 0, i64 %35
  %37 = load i8, i8* %36, align 1
  %38 = load i32, i32* %7, align 4
  %39 = sext i32 %38 to i64
  %40 = getelementptr inbounds [250 x [5 x i8]], [250 x [5 x i8]]* %9, i64 0, i64 %39
  %41 = load i32, i32* %6, align 4
  %42 = load i32, i32* %5, align 4
  %43 = sub nsw i32 %41, %42
  %44 = sext i32 %43 to i64
  %45 = getelementptr inbounds [5 x i8], [5 x i8]* %40, i64 0, i64 %44
  store i8 %37, i8* %45, align 1
  br label %46

46:                                               ; preds = %33
  %47 = load i32, i32* %6, align 4
  %48 = add nsw i32 %47, 1
  store i32 %48, i32* %6, align 4
  br label %27

49:                                               ; preds = %27
  %50 = load i32, i32* %7, align 4
  %51 = add nsw i32 %50, 1
  store i32 %51, i32* %7, align 4
  br label %52

52:                                               ; preds = %49
  %53 = load i32, i32* %5, align 4
  %54 = add nsw i32 %53, 1
  store i32 %54, i32* %5, align 4
  br label %19

55:                                               ; preds = %19
  %56 = getelementptr inbounds [250 x i32], [250 x i32]* %8, i64 0, i64 0
  %57 = load i32, i32* %56, align 16
  store i32 %57, i32* %10, align 4
  store i32 0, i32* %6, align 4
  br label %58

58:                                               ; preds = %90, %55
  %59 = load i32, i32* %6, align 4
  %60 = load i32, i32* %7, align 4
  %61 = icmp slt i32 %59, %60
  br i1 %61, label %62, label %93

62:                                               ; preds = %58
  %63 = load i32, i32* %6, align 4
  store i32 %63, i32* %5, align 4
  br label %64

64:                                               ; preds = %86, %62
  %65 = load i32, i32* %5, align 4
  %66 = load i32, i32* %7, align 4
  %67 = icmp slt i32 %65, %66
  br i1 %67, label %68, label %89

68:                                               ; preds = %64
  %69 = load i32, i32* %6, align 4
  %70 = sext i32 %69 to i64
  %71 = getelementptr inbounds [250 x [5 x i8]], [250 x [5 x i8]]* %9, i64 0, i64 %70
  %72 = getelementptr inbounds [5 x i8], [5 x i8]* %71, i64 0, i64 0
  %73 = load i32, i32* %5, align 4
  %74 = sext i32 %73 to i64
  %75 = getelementptr inbounds [250 x [5 x i8]], [250 x [5 x i8]]* %9, i64 0, i64 %74
  %76 = getelementptr inbounds [5 x i8], [5 x i8]* %75, i64 0, i64 0
  %77 = call i32 @strcmp(i8* %72, i8* %76) #4
  %78 = icmp ne i32 %77, 0
  br i1 %78, label %85, label %79

79:                                               ; preds = %68
  %80 = load i32, i32* %6, align 4
  %81 = sext i32 %80 to i64
  %82 = getelementptr inbounds [250 x i32], [250 x i32]* %8, i64 0, i64 %81
  %83 = load i32, i32* %82, align 4
  %84 = add nsw i32 %83, 1
  store i32 %84, i32* %82, align 4
  br label %85

85:                                               ; preds = %79, %68
  br label %86

86:                                               ; preds = %85
  %87 = load i32, i32* %5, align 4
  %88 = add nsw i32 %87, 1
  store i32 %88, i32* %5, align 4
  br label %64

89:                                               ; preds = %64
  br label %90

90:                                               ; preds = %89
  %91 = load i32, i32* %6, align 4
  %92 = add nsw i32 %91, 1
  store i32 %92, i32* %6, align 4
  br label %58

93:                                               ; preds = %58
  store i32 0, i32* %5, align 4
  br label %94

94:                                               ; preds = %111, %93
  %95 = load i32, i32* %5, align 4
  %96 = load i32, i32* %7, align 4
  %97 = icmp slt i32 %95, %96
  br i1 %97, label %98, label %114

98:                                               ; preds = %94
  %99 = load i32, i32* %5, align 4
  %100 = sext i32 %99 to i64
  %101 = getelementptr inbounds [250 x i32], [250 x i32]* %8, i64 0, i64 %100
  %102 = load i32, i32* %101, align 4
  %103 = load i32, i32* %10, align 4
  %104 = icmp sgt i32 %102, %103
  br i1 %104, label %105, label %110

105:                                              ; preds = %98
  %106 = load i32, i32* %5, align 4
  %107 = sext i32 %106 to i64
  %108 = getelementptr inbounds [250 x i32], [250 x i32]* %8, i64 0, i64 %107
  %109 = load i32, i32* %108, align 4
  store i32 %109, i32* %10, align 4
  br label %110

110:                                              ; preds = %105, %98
  br label %111

111:                                              ; preds = %110
  %112 = load i32, i32* %5, align 4
  %113 = add nsw i32 %112, 1
  store i32 %113, i32* %5, align 4
  br label %94

114:                                              ; preds = %94
  %115 = load i32, i32* %10, align 4
  %116 = icmp sgt i32 %115, 1
  br i1 %116, label %117, label %142

117:                                              ; preds = %114
  %118 = load i32, i32* %10, align 4
  %119 = call i32 (i8*, ...) @printf(i8* getelementptr inbounds ([4 x i8], [4 x i8]* @.str, i64 0, i64 0), i32 %118)
  store i32 0, i32* %5, align 4
  br label %120

120:                                              ; preds = %138, %117
  %121 = load i32, i32* %5, align 4
  %122 = load i32, i32* %7, align 4
  %123 = icmp slt i32 %121, %122
  br i1 %123, label %124, label %141

124:                                              ; preds = %120
  %125 = load i32, i32* %5, align 4
  %126 = sext i32 %125 to i64
  %127 = getelementptr inbounds [250 x i32], [250 x i32]* %8, i64 0, i64 %126
  %128 = load i32, i32* %127, align 4
  %129 = load i32, i32* %10, align 4
  %130 = icmp eq i32 %128, %129
  br i1 %130, label %131, label %137

131:                                              ; preds = %124
  %132 = load i32, i32* %5, align 4
  %133 = sext i32 %132 to i64
  %134 = getelementptr inbounds [250 x [5 x i8]], [250 x [5 x i8]]* %9, i64 0, i64 %133
  %135 = getelementptr inbounds [5 x i8], [5 x i8]* %134, i64 0, i64 0
  %136 = call i32 (i8*, ...) @printf(i8* getelementptr inbounds ([4 x i8], [4 x i8]* @.str.1, i64 0, i64 0), i8* %135)
  br label %137

137:                                              ; preds = %131, %124
  br label %138

138:                                              ; preds = %137
  %139 = load i32, i32* %5, align 4
  %140 = add nsw i32 %139, 1
  store i32 %140, i32* %5, align 4
  br label %120

141:                                              ; preds = %120
  br label %144

142:                                              ; preds = %114
  %143 = call i32 (i8*, ...) @printf(i8* getelementptr inbounds ([3 x i8], [3 x i8]* @.str.2, i64 0, i64 0))
  br label %144

144:                                              ; preds = %142, %141
  ret i32 0
}

declare dso_local i32 @__isoc99_scanf(i8*, ...) #1

declare dso_local i32 @gets(...) #1

; Function Attrs: nounwind readonly
declare dso_local i64 @strlen(i8*) #2

; Function Attrs: argmemonly nounwind willreturn
declare void @llvm.memset.p0i8.i64(i8* nocapture writeonly, i8, i64, i1 immarg) #3

; Function Attrs: nounwind readonly
declare dso_local i32 @strcmp(i8*, i8*) #2

declare dso_local i32 @printf(i8*, ...) #1


!llvm.module.flags = !{!0}
!llvm.ident = !{!1}

!0 = !{i32 1, !"wchar_size", i32 4}
!1 = !{!"clang version 10.0.0-4ubuntu1 "}
